; Function Attrs: mustprogress uwtable
define void @_ZN6icu_776number4impl10AffixUtils6escapeERKNS_13UnicodeStringE(ptr dead_on_unwind noalias writable sret(%"class.icu_77::UnicodeString") align 8 initializes((0, 10)) %0, ptr noundef nonnull align 8 dereferenceable(64) %1) local_unnamed_addr #3 align 2 personality ptr @__gxx_personality_v0 {
  %3 = alloca i16, align 2
  %4 = alloca i16, align 2
  %5 = alloca i16, align 2
  store ptr getelementptr inbounds nuw inrange(-16, 88) (i8, ptr @_ZTVN6icu_7713UnicodeStringE, i64 16), ptr %0, align 8, !tbaa !10
  %6 = getelementptr inbounds nuw i8, ptr %0, i64 8
  store i16 2, ptr %6, align 8, !tbaa !3
  %7 = getelementptr inbounds nuw i8, ptr %1, i64 8
  %8 = getelementptr inbounds nuw i8, ptr %1, i64 12
  %9 = load i16, ptr %7, align 8, !tbaa !3
  %10 = icmp slt i16 %9, 0
  %11 = ashr i16 %9, 5
  %12 = sext i16 %11 to i32
  %13 = load i32, ptr %8, align 4
  %14 = select i1 %10, i32 %13, i32 %12
  %15 = icmp sgt i32 %14, 0
  br i1 %15, label %.lr.ph, label %._crit_edge.thread

.lr.ph:                                           ; preds = %2, %39
  %.030 = phi i32 [ %.1, %39 ], [ 0, %2 ]
  %.02029 = phi i32 [ %42, %39 ], [ 0, %2 ]
  %16 = invoke noundef i32 @_ZNK6icu_7713UnicodeString8char32AtEi(ptr noundef nonnull align 8 dereferenceable(64) %1, i32 noundef %.02029)
          to label %17 unwind label %20

17:                                               ; preds = %.lr.ph
  switch i32 %16, label %32 [
    i32 39, label %22
    i32 45, label %26
    i32 43, label %26
    i32 37, label %26
    i32 8240, label %26
    i32 164, label %26
  ]

18:                                               ; preds = %50
  %19 = landingpad { ptr, i32 }
          cleanup
  br label %52

20:                                               ; preds = %.invoke, %34, %28, %36, %30, %.lr.ph
  %21 = landingpad { ptr, i32 }
          cleanup
  br label %52

22:                                               ; preds = %17
  %23 = invoke noundef nonnull align 8 dereferenceable(64) ptr @_ZN6icu_7713UnicodeString8doAppendEPKDsii(ptr noundef nonnull align 8 dereferenceable(64) %0, ptr noundef nonnull @.str, i32 noundef 0, i32 noundef -1)
          to label %_ZN6icu_7713UnicodeString6appendENS_14ConstChar16PtrEi.exit unwind label %24

_ZN6icu_7713UnicodeString6appendENS_14ConstChar16PtrEi.exit: ; preds = %22
  call void asm sideeffect "", "rm,~{memory},~{dirflag},~{fpsr},~{flags}"(ptr nonnull @.str) #11, !srcloc !12
  br label %39

24:                                               ; preds = %22
  %25 = landingpad { ptr, i32 }
          cleanup
  call void asm sideeffect "", "rm,~{memory},~{dirflag},~{fpsr},~{flags}"(ptr nonnull @.str) #11, !srcloc !12
  br label %52

26:                                               ; preds = %17, %17, %17, %17, %17
  %27 = icmp eq i32 %.030, 0
  br i1 %27, label %28, label %.invoke

28:                                               ; preds = %26
  call void @llvm.lifetime.start.p0(i64 2, ptr nonnull %5)
  store i16 39, ptr %5, align 2, !tbaa !13
  %29 = invoke noundef nonnull align 8 dereferenceable(64) ptr @_ZN6icu_7713UnicodeString8doAppendEPKDsii(ptr noundef nonnull align 8 dereferenceable(64) %0, ptr noundef nonnull %5, i32 noundef 0, i32 noundef 1)
          to label %30 unwind label %20

30:                                               ; preds = %28
  call void @llvm.lifetime.end.p0(i64 2, ptr nonnull %5)
  %31 = invoke noundef nonnull align 8 dereferenceable(64) ptr @_ZN6icu_7713UnicodeString6appendEi(ptr noundef nonnull align 8 dereferenceable(64) %0, i32 noundef %16)
          to label %39 unwind label %20

32:                                               ; preds = %17
  %33 = icmp eq i32 %.030, 2
  br i1 %33, label %34, label %.invoke

34:                                               ; preds = %32
  call void @llvm.lifetime.start.p0(i64 2, ptr nonnull %4)
  store i16 39, ptr %4, align 2, !tbaa !13
  %35 = invoke noundef nonnull align 8 dereferenceable(64) ptr @_ZN6icu_7713UnicodeString8doAppendEPKDsii(ptr noundef nonnull align 8 dereferenceable(64) %0, ptr noundef nonnull %4, i32 noundef 0, i32 noundef 1)
          to label %36 unwind label %20

36:                                               ; preds = %34
  call void @llvm.lifetime.end.p0(i64 2, ptr nonnull %4)
  %37 = invoke noundef nonnull align 8 dereferenceable(64) ptr @_ZN6icu_7713UnicodeString6appendEi(ptr noundef nonnull align 8 dereferenceable(64) %0, i32 noundef %16)
          to label %39 unwind label %20

.invoke:                                          ; preds = %32, %26
  %38 = invoke noundef nonnull align 8 dereferenceable(64) ptr @_ZN6icu_7713UnicodeString6appendEi(ptr noundef nonnull align 8 dereferenceable(64) %0, i32 noundef %16)
          to label %39 unwind label %20

39:                                               ; preds = %.invoke, %36, %30, %_ZN6icu_7713UnicodeString6appendENS_14ConstChar16PtrEi.exit
  %.1 = phi i32 [ %.030, %_ZN6icu_7713UnicodeString6appendENS_14ConstChar16PtrEi.exit ], [ 2, %30 ], [ 0, %36 ], [ %.030, %.invoke ]
  %40 = icmp ult i32 %16, 65536
  %41 = select i1 %40, i32 1, i32 2
  %42 = add nuw nsw i32 %41, %.02029
  %43 = load i16, ptr %7, align 8, !tbaa !3
  %44 = icmp slt i16 %43, 0
  %45 = ashr i16 %43, 5
  %46 = sext i16 %45 to i32
  %47 = load i32, ptr %8, align 4
  %48 = select i1 %44, i32 %47, i32 %46
  %49 = icmp slt i32 %42, %48
  br i1 %49, label %.lr.ph, label %._crit_edge, !llvm.loop !15

._crit_edge:                                      ; preds = %39
  %.not = icmp eq i32 %.1, 0
  br i1 %.not, label %._crit_edge.thread, label %50

50:                                               ; preds = %._crit_edge
  call void @llvm.lifetime.start.p0(i64 2, ptr nonnull %3)
  store i16 39, ptr %3, align 2, !tbaa !13
  %51 = invoke noundef nonnull align 8 dereferenceable(64) ptr @_ZN6icu_7713UnicodeString8doAppendEPKDsii(ptr noundef nonnull align 8 dereferenceable(64) %0, ptr noundef nonnull %3, i32 noundef 0, i32 noundef 1)
          to label %_ZN6icu_7713UnicodeString6appendEDs.exit24 unwind label %18

_ZN6icu_7713UnicodeString6appendEDs.exit24:       ; preds = %50
  call void @llvm.lifetime.end.p0(i64 2, ptr nonnull %3)
  br label %._crit_edge.thread

._crit_edge.thread:                               ; preds = %2, %_ZN6icu_7713UnicodeString6appendEDs.exit24, %._crit_edge
  ret void

52:                                               ; preds = %20, %24, %18
  %.pn.pn = phi { ptr, i32 } [ %19, %18 ], [ %21, %20 ], [ %25, %24 ]
  call void @_ZN6icu_7713UnicodeStringD1Ev(ptr noundef nonnull align 8 dereferenceable(64) %0) #11
  resume { ptr, i32 } %.pn.pn
}